target datalayout = "e-m:e-p270:32:32-p271:32:32-p272:64:64-i64:64-i128:128-f80:128-n8:16:32:64-S128"
target triple = "x86_64-pc-linux-gnu"

%struct.CVodeMemRec = type { ptr, double, ptr, ptr, i32, i32, double, double, ptr, i32, i32, ptr, ptr, i32, i32, ptr, i32, i32, double, double, ptr, i32, i32, i32, i32, ptr, ptr, ptr, i32, i32, ptr, ptr, ptr, i32, double, i32, i32, double, ptr, ptr, ptr, i32, ptr, ptr, i32, i32, i32, double, ptr, ptr, ptr, [13 x ptr], ptr, ptr, ptr, ptr, ptr, ptr, ptr, ptr, ptr, [13 x ptr], ptr, ptr, ptr, ptr, [13 x ptr], ptr, ptr, ptr, ptr, ptr, i32, [13 x ptr], ptr, ptr, ptr, ptr, ptr, i32, i32, double, i32, i32, i32, i32, i32, double, double, double, double, double, double, double, double, [14 x double], [6 x double], [13 x double], double, double, double, double, double, double, double, double, i32, double, double, i32, double, double, ptr, i32, i64, i32, i32, i32, double, double, double, double, double, double, double, double, double, double, double, double, i64, i32, i64, i64, i64, i64, i64, i64, i64, i64, i64, ptr, i64, i64, ptr, i64, i64, ptr, i64, i64, i64, i64, i64, i64, i32, double, double, double, i64, i64, i64, i64, i64, i64, ptr, i32, ptr, i32, ptr, i32, ptr, i32, i32, i64, i32, ptr, i32, ptr, ptr, ptr, ptr, ptr, ptr, i32, i32, ptr, ptr, ptr, ptr, ptr, i64, double, i32, i32, i64, double, double, double, i32, i32, double, i32, i32, i32, i32, i32, i32, i32, i32, i32, i32, i32, i32, i32, i32, i32, i32, ptr, i64, i32, [6 x [4 x double]], i32, i64, ptr, i32, ptr, ptr, double, double, double, ptr, ptr, ptr, double, double, i32, i32, i64, ptr, i32, ptr, i32, i32, [13 x double], ptr, ptr, ptr, i32, ptr, i32 }
%struct.CVadjMemRec = type { double, double, i32, i32, double, i32, double, ptr, i32, ptr, i32, ptr, i32, ptr, i64, i64, ptr, i64, i32, ptr, ptr, ptr, ptr, i32, i32, i32, i32, [13 x ptr], [13 x ptr], [13 x double], ptr, ptr }
%struct.CVodeBMemRec = type { i32, double, ptr, i32, i32, ptr, ptr, ptr, ptr, ptr, ptr, ptr, ptr, ptr, double, ptr, ptr }

; Function Attrs: nounwind uwtable
define internal i32 @CVArhsQ(double noundef %0, ptr noundef %1, ptr noundef %2, ptr noundef %3) #0 {
  %5 = alloca double, align 8
  %6 = alloca ptr, align 8
  %7 = alloca ptr, align 8
  %8 = alloca ptr, align 8
  %9 = alloca ptr, align 8
  %10 = alloca ptr, align 8
  %11 = alloca ptr, align 8
  %12 = alloca i32, align 4
  store double %0, ptr %5, align 8, !tbaa !69
  store ptr %1, ptr %6, align 8, !tbaa !70
  store ptr %2, ptr %7, align 8, !tbaa !70
  store ptr %3, ptr %8, align 8, !tbaa !3
  call void @llvm.lifetime.start.p0(i64 8, ptr %9) #6
  call void @llvm.lifetime.start.p0(i64 8, ptr %10) #6
  call void @llvm.lifetime.start.p0(i64 8, ptr %11) #6
  call void @llvm.lifetime.start.p0(i64 4, ptr %12) #6
  %13 = load ptr, ptr %8, align 8, !tbaa !3
  store ptr %13, ptr %9, align 8, !tbaa !11
  %14 = load ptr, ptr %9, align 8, !tbaa !11
  %15 = getelementptr inbounds nuw %struct.CVodeMemRec, ptr %14, i32 0, i32 248
  %16 = load ptr, ptr %15, align 8, !tbaa !15
  store ptr %16, ptr %10, align 8, !tbaa !13
  %17 = load ptr, ptr %10, align 8, !tbaa !13
  %18 = getelementptr inbounds nuw %struct.CVadjMemRec, ptr %17, i32 0, i32 9
  %19 = load ptr, ptr %18, align 8, !tbaa !47
  store ptr %19, ptr %11, align 8, !tbaa !103
  %20 = load ptr, ptr %10, align 8, !tbaa !13
  %21 = getelementptr inbounds nuw %struct.CVadjMemRec, ptr %20, i32 0, i32 26
  %22 = load i32, ptr %21, align 4, !tbaa !45
  %23 = icmp ne i32 %22, 0
  br i1 %23, label %24, label %37

24:                                               ; preds = %4
  %25 = load ptr, ptr %10, align 8, !tbaa !13
  %26 = getelementptr inbounds nuw %struct.CVadjMemRec, ptr %25, i32 0, i32 22
  %27 = load ptr, ptr %26, align 8, !tbaa !41
  %28 = load ptr, ptr %9, align 8, !tbaa !11
  %29 = load double, ptr %5, align 8, !tbaa !69
  %30 = load ptr, ptr %10, align 8, !tbaa !13
  %31 = getelementptr inbounds nuw %struct.CVadjMemRec, ptr %30, i32 0, i32 30
  %32 = load ptr, ptr %31, align 8, !tbaa !56
  %33 = load ptr, ptr %10, align 8, !tbaa !13
  %34 = getelementptr inbounds nuw %struct.CVadjMemRec, ptr %33, i32 0, i32 31
  %35 = load ptr, ptr %34, align 8, !tbaa !58
  %36 = call i32 %27(ptr noundef %28, double noundef %29, ptr noundef %32, ptr noundef %35)
  br label %47

37:                                               ; preds = %4
  %38 = load ptr, ptr %10, align 8, !tbaa !13
  %39 = getelementptr inbounds nuw %struct.CVadjMemRec, ptr %38, i32 0, i32 22
  %40 = load ptr, ptr %39, align 8, !tbaa !41
  %41 = load ptr, ptr %9, align 8, !tbaa !11
  %42 = load double, ptr %5, align 8, !tbaa !69
  %43 = load ptr, ptr %10, align 8, !tbaa !13
  %44 = getelementptr inbounds nuw %struct.CVadjMemRec, ptr %43, i32 0, i32 30
  %45 = load ptr, ptr %44, align 8, !tbaa !56
  %46 = call i32 %40(ptr noundef %41, double noundef %42, ptr noundef %45, ptr noundef null)
  br label %47

47:                                               ; preds = %37, %24
  %48 = load ptr, ptr %11, align 8, !tbaa !103
  %49 = getelementptr inbounds nuw %struct.CVodeBMemRec, ptr %48, i32 0, i32 4
  %50 = load i32, ptr %49, align 4, !tbaa !163
  %51 = icmp ne i32 %50, 0
  br i1 %51, label %52, label %69

52:                                               ; preds = %47
  %53 = load ptr, ptr %11, align 8, !tbaa !103
  %54 = getelementptr inbounds nuw %struct.CVodeBMemRec, ptr %53, i32 0, i32 8
  %55 = load ptr, ptr %54, align 8, !tbaa !158
  %56 = load double, ptr %5, align 8, !tbaa !69
  %57 = load ptr, ptr %10, align 8, !tbaa !13
  %58 = getelementptr inbounds nuw %struct.CVadjMemRec, ptr %57, i32 0, i32 30
  %59 = load ptr, ptr %58, align 8, !tbaa !56
  %60 = load ptr, ptr %10, align 8, !tbaa !13
  %61 = getelementptr inbounds nuw %struct.CVadjMemRec, ptr %60, i32 0, i32 31
  %62 = load ptr, ptr %61, align 8, !tbaa !58
  %63 = load ptr, ptr %6, align 8, !tbaa !70
  %64 = load ptr, ptr %7, align 8, !tbaa !70
  %65 = load ptr, ptr %11, align 8, !tbaa !103
  %66 = getelementptr inbounds nuw %struct.CVodeBMemRec, ptr %65, i32 0, i32 9
  %67 = load ptr, ptr %66, align 8, !tbaa !159
  %68 = call i32 %55(double noundef %56, ptr noundef %59, ptr noundef %62, ptr noundef %63, ptr noundef %64, ptr noundef %67)
  store i32 %68, ptr %12, align 4, !tbaa !9
  br label %83

69:                                               ; preds = %47
  %70 = load ptr, ptr %11, align 8, !tbaa !103
  %71 = getelementptr inbounds nuw %struct.CVodeBMemRec, ptr %70, i32 0, i32 7
  %72 = load ptr, ptr %71, align 8, !tbaa !157
  %73 = load double, ptr %5, align 8, !tbaa !69
  %74 = load ptr, ptr %10, align 8, !tbaa !13
  %75 = getelementptr inbounds nuw %struct.CVadjMemRec, ptr %74, i32 0, i32 30
  %76 = load ptr, ptr %75, align 8, !tbaa !56
  %77 = load ptr, ptr %6, align 8, !tbaa !70
  %78 = load ptr, ptr %7, align 8, !tbaa !70
  %79 = load ptr, ptr %11, align 8, !tbaa !103
  %80 = getelementptr inbounds nuw %struct.CVodeBMemRec, ptr %79, i32 0, i32 9
  %81 = load ptr, ptr %80, align 8, !tbaa !159
  %82 = call i32 %72(double noundef %73, ptr noundef %76, ptr noundef %77, ptr noundef %78, ptr noundef %81)
  store i32 %82, ptr %12, align 4, !tbaa !9
  br label %83

83:                                               ; preds = %69, %52
  %84 = load i32, ptr %12, align 4, !tbaa !9
  call void @llvm.lifetime.end.p0(i64 4, ptr %12) #6
  call void @llvm.lifetime.end.p0(i64 8, ptr %11) #6
  call void @llvm.lifetime.end.p0(i64 8, ptr %10) #6
  call void @llvm.lifetime.end.p0(i64 8, ptr %9) #6
  ret i32 %84
}