; Function Attrs: nounwind uwtable
define internal i32 @CVArhsQ(double noundef %0, ptr noundef %1, ptr noundef %2, ptr noundef %3) #0 {
  %5 = getelementptr inbounds nuw i8, ptr %3, i64 2672
  %6 = load ptr, ptr %5, align 8, !tbaa !3
  %7 = getelementptr inbounds nuw i8, ptr %6, i64 64
  %8 = load ptr, ptr %7, align 8, !tbaa !41
  %9 = getelementptr inbounds nuw i8, ptr %6, i64 188
  %10 = load i32, ptr %9, align 4, !tbaa !39
  %.not = icmp eq i32 %10, 0
  %11 = getelementptr inbounds nuw i8, ptr %6, i64 168
  %12 = load ptr, ptr %11, align 8, !tbaa !35
  %13 = getelementptr inbounds nuw i8, ptr %6, i64 504
  %14 = load ptr, ptr %13, align 8, !tbaa !50
  br i1 %.not, label %18, label %15

15:                                               ; preds = %4
  %16 = getelementptr inbounds nuw i8, ptr %6, i64 512
  %17 = load ptr, ptr %16, align 8, !tbaa !52
  br label %18

18:                                               ; preds = %4, %15
  %.sink = phi ptr [ %17, %15 ], [ null, %4 ]
  %19 = tail call i32 %12(ptr noundef nonnull %3, double noundef %0, ptr noundef %14, ptr noundef %.sink) #9
  %20 = getelementptr inbounds nuw i8, ptr %8, i64 28
  %21 = load i32, ptr %20, align 4, !tbaa !148
  %.not27 = icmp eq i32 %21, 0
  %22 = getelementptr inbounds nuw i8, ptr %6, i64 504
  %23 = load ptr, ptr %22, align 8, !tbaa !50
  br i1 %.not27, label %32, label %24

24:                                               ; preds = %18
  %25 = getelementptr inbounds nuw i8, ptr %8, i64 56
  %26 = load ptr, ptr %25, align 8, !tbaa !150
  %27 = getelementptr inbounds nuw i8, ptr %6, i64 512
  %28 = load ptr, ptr %27, align 8, !tbaa !52
  %29 = getelementptr inbounds nuw i8, ptr %8, i64 64
  %30 = load ptr, ptr %29, align 8, !tbaa !147
  %31 = tail call i32 %26(double noundef %0, ptr noundef %23, ptr noundef %28, ptr noundef %1, ptr noundef %2, ptr noundef %30) #9
  br label %38

32:                                               ; preds = %18
  %33 = getelementptr inbounds nuw i8, ptr %8, i64 48
  %34 = load ptr, ptr %33, align 8, !tbaa !149
  %35 = getelementptr inbounds nuw i8, ptr %8, i64 64
  %36 = load ptr, ptr %35, align 8, !tbaa !147
  %37 = tail call i32 %34(double noundef %0, ptr noundef %23, ptr noundef %1, ptr noundef %2, ptr noundef %36) #9
  br label %38

38:                                               ; preds = %32, %24
  %.0 = phi i32 [ %31, %24 ], [ %37, %32 ]
  ret i32 %.0
}